target datalayout = "e-m:e-p270:32:32-p271:32:32-p272:64:64-i64:64-i128:128-f80:128-n8:16:32:64-S128"
target triple = "x86_64-pc-linux-gnu"

%struct.Aig_Obj_t_ = type { %union.anon, ptr, ptr, i64, i32, i32, %union.anon.0 }
%union.anon = type { ptr }
%union.anon.0 = type { ptr }
%struct.Cnf_Man_t_ = type { ptr, ptr, ptr, i32, ptr, i32, [4 x ptr], ptr, i64, i64, i64 }
%struct.Vec_Ptr_t_ = type { i32, i32, ptr }
%struct.Aig_Man_t_ = type { ptr, ptr, ptr, ptr, ptr, ptr, ptr, %struct.Aig_Obj_t_, i32, i32, i32, i32, i32, i32, [7 x i32], i32, ptr, i32, ptr, i32, ptr, i32, i32, i32, ptr, i32, i32, i32, i32, i32, ptr, ptr, i32, ptr, ptr, i32, ptr, ptr, i32, i32, i32, ptr, ptr, ptr, ptr, ptr, ptr, ptr, ptr, ptr, ptr, ptr, ptr, ptr, ptr, i32, ptr, ptr, ptr, ptr, i32, i64, i64, i64, ptr, ptr }

; Function Attrs: inlinehint nounwind uwtable
define internal ptr @Aig_Regular(ptr noundef %0) #4 {
  %2 = alloca ptr, align 8
  store ptr %0, ptr %2, align 8, !tbaa !44
  %3 = load ptr, ptr %2, align 8, !tbaa !44
  %4 = ptrtoint ptr %3 to i64
  %5 = and i64 %4, -2
  %6 = inttoptr i64 %5 to ptr
  ret ptr %6
}

; Function Attrs: inlinehint nounwind uwtable
define internal ptr @Aig_ObjFanin0(ptr noundef %0) #4 {
  %2 = alloca ptr, align 8
  store ptr %0, ptr %2, align 8, !tbaa !44
  %3 = load ptr, ptr %2, align 8, !tbaa !44
  %4 = getelementptr inbounds nuw %struct.Aig_Obj_t_, ptr %3, i32 0, i32 1
  %5 = load ptr, ptr %4, align 8, !tbaa !76
  %6 = call ptr @Aig_Regular(ptr noundef %5)
  ret ptr %6
}

; Function Attrs: inlinehint nounwind uwtable
define internal ptr @Vec_PtrAlloc(i32 noundef %0) #4 {
  %2 = alloca i32, align 4
  %3 = alloca ptr, align 8
  store i32 %0, ptr %2, align 4, !tbaa !3
  call void @llvm.lifetime.start.p0(i64 8, ptr %3) #12
  %4 = call noalias ptr @malloc(i64 noundef 16) #14
  store ptr %4, ptr %3, align 8, !tbaa !46
  %5 = load i32, ptr %2, align 4, !tbaa !3
  %6 = icmp sgt i32 %5, 0
  br i1 %6, label %7, label %11

7:                                                ; preds = %1
  %8 = load i32, ptr %2, align 4, !tbaa !3
  %9 = icmp slt i32 %8, 8
  br i1 %9, label %10, label %11

10:                                               ; preds = %7
  store i32 8, ptr %2, align 4, !tbaa !3
  br label %11

11:                                               ; preds = %10, %7, %1
  %12 = load ptr, ptr %3, align 8, !tbaa !46
  %13 = getelementptr inbounds nuw %struct.Vec_Ptr_t_, ptr %12, i32 0, i32 1
  store i32 0, ptr %13, align 4, !tbaa !57
  %14 = load i32, ptr %2, align 4, !tbaa !3
  %15 = load ptr, ptr %3, align 8, !tbaa !46
  %16 = getelementptr inbounds nuw %struct.Vec_Ptr_t_, ptr %15, i32 0, i32 0
  store i32 %14, ptr %16, align 8, !tbaa !59
  %17 = load ptr, ptr %3, align 8, !tbaa !46
  %18 = getelementptr inbounds nuw %struct.Vec_Ptr_t_, ptr %17, i32 0, i32 0
  %19 = load i32, ptr %18, align 8, !tbaa !59
  %20 = icmp ne i32 %19, 0
  br i1 %20, label %21, label %28

21:                                               ; preds = %11
  %22 = load ptr, ptr %3, align 8, !tbaa !46
  %23 = getelementptr inbounds nuw %struct.Vec_Ptr_t_, ptr %22, i32 0, i32 0
  %24 = load i32, ptr %23, align 8, !tbaa !59
  %25 = sext i32 %24 to i64
  %26 = mul i64 8, %25
  %27 = call noalias ptr @malloc(i64 noundef %26) #14
  br label %29

28:                                               ; preds = %11
  br label %29

29:                                               ; preds = %28, %21
  %30 = phi ptr [ %27, %21 ], [ null, %28 ]
  %31 = load ptr, ptr %3, align 8, !tbaa !46
  %32 = getelementptr inbounds nuw %struct.Vec_Ptr_t_, ptr %31, i32 0, i32 2
  store ptr %30, ptr %32, align 8, !tbaa !60
  %33 = load ptr, ptr %3, align 8, !tbaa !46
  call void @llvm.lifetime.end.p0(i64 8, ptr %3) #12
  ret ptr %33
}

; Function Attrs: inlinehint nounwind uwtable
define internal ptr @Vec_PtrEntry(ptr noundef %0, i32 noundef %1) #4 {
  %3 = alloca ptr, align 8
  %4 = alloca i32, align 4
  store ptr %0, ptr %3, align 8, !tbaa !46
  store i32 %1, ptr %4, align 4, !tbaa !3
  %5 = load ptr, ptr %3, align 8, !tbaa !46
  %6 = getelementptr inbounds nuw %struct.Vec_Ptr_t_, ptr %5, i32 0, i32 2
  %7 = load ptr, ptr %6, align 8, !tbaa !60
  %8 = load i32, ptr %4, align 4, !tbaa !3
  %9 = sext i32 %8 to i64
  %10 = getelementptr inbounds ptr, ptr %7, i64 %9
  %11 = load ptr, ptr %10, align 8, !tbaa !20
  ret ptr %11
}

; Function Attrs: inlinehint nounwind uwtable
define internal i32 @Vec_PtrSize(ptr noundef %0) #4 {
  %2 = alloca ptr, align 8
  store ptr %0, ptr %2, align 8, !tbaa !46
  %3 = load ptr, ptr %2, align 8, !tbaa !46
  %4 = getelementptr inbounds nuw %struct.Vec_Ptr_t_, ptr %3, i32 0, i32 1
  %5 = load i32, ptr %4, align 4, !tbaa !57
  ret i32 %5
}

; Function Attrs: nounwind uwtable
define ptr @Cnf_ManScanMapping(ptr noundef %0, i32 noundef %1, i32 noundef %2) #0 {
  %4 = alloca ptr, align 8
  %5 = alloca i32, align 4
  %6 = alloca i32, align 4
  %7 = alloca ptr, align 8
  %8 = alloca ptr, align 8
  %9 = alloca i32, align 4
  store ptr %0, ptr %4, align 8, !tbaa !42
  store i32 %1, ptr %5, align 4, !tbaa !3
  store i32 %2, ptr %6, align 4, !tbaa !3
  call void @llvm.lifetime.start.p0(i64 8, ptr %7) #12
  store ptr null, ptr %7, align 8, !tbaa !46
  call void @llvm.lifetime.start.p0(i64 8, ptr %8) #12
  call void @llvm.lifetime.start.p0(i64 4, ptr %9) #12
  store i32 0, ptr %9, align 4, !tbaa !3
  br label %10

10:                                               ; preds = %40, %3
  %11 = load i32, ptr %9, align 4, !tbaa !3
  %12 = load ptr, ptr %4, align 8, !tbaa !42
  %13 = getelementptr inbounds nuw %struct.Cnf_Man_t_, ptr %12, i32 0, i32 0
  %14 = load ptr, ptr %13, align 8, !tbaa !51
  %15 = getelementptr inbounds nuw %struct.Aig_Man_t_, ptr %14, i32 0, i32 4
  %16 = load ptr, ptr %15, align 8, !tbaa !65
  %17 = call i32 @Vec_PtrSize(ptr noundef %16)
  %18 = icmp slt i32 %11, %17
  br i1 %18, label %19, label %27

19:                                               ; preds = %10
  %20 = load ptr, ptr %4, align 8, !tbaa !42
  %21 = getelementptr inbounds nuw %struct.Cnf_Man_t_, ptr %20, i32 0, i32 0
  %22 = load ptr, ptr %21, align 8, !tbaa !51
  %23 = getelementptr inbounds nuw %struct.Aig_Man_t_, ptr %22, i32 0, i32 4
  %24 = load ptr, ptr %23, align 8, !tbaa !65
  %25 = load i32, ptr %9, align 4, !tbaa !3
  %26 = call ptr @Vec_PtrEntry(ptr noundef %24, i32 noundef %25)
  store ptr %26, ptr %8, align 8, !tbaa !44
  br label %27

27:                                               ; preds = %19, %10
  %28 = phi i1 [ false, %10 ], [ true, %19 ]
  br i1 %28, label %29, label %43

29:                                               ; preds = %27
  %30 = load ptr, ptr %8, align 8, !tbaa !44
  %31 = icmp eq ptr %30, null
  br i1 %31, label %32, label %33

32:                                               ; preds = %29
  br label %39

33:                                               ; preds = %29
  %34 = load ptr, ptr %8, align 8, !tbaa !44
  %35 = getelementptr inbounds nuw %struct.Aig_Obj_t_, ptr %34, i32 0, i32 3
  %36 = load i64, ptr %35, align 8
  %37 = and i64 %36, -4294967233
  %38 = or i64 %37, 0
  store i64 %38, ptr %35, align 8
  br label %39

39:                                               ; preds = %33, %32
  br label %40

40:                                               ; preds = %39
  %41 = load i32, ptr %9, align 4, !tbaa !3
  %42 = add nsw i32 %41, 1
  store i32 %42, ptr %9, align 4, !tbaa !3
  br label %10, !llvm.loop !85

43:                                               ; preds = %27
  %44 = load i32, ptr %5, align 4, !tbaa !3
  %45 = icmp ne i32 %44, 0
  br i1 %45, label %46, label %48

46:                                               ; preds = %43
  %47 = call ptr @Vec_PtrAlloc(i32 noundef 1000)
  store ptr %47, ptr %7, align 8, !tbaa !46
  br label %48

48:                                               ; preds = %46, %43
  %49 = load ptr, ptr %4, align 8, !tbaa !42
  %50 = getelementptr inbounds nuw %struct.Cnf_Man_t_, ptr %49, i32 0, i32 3
  store i32 0, ptr %50, align 8, !tbaa !73
  store i32 0, ptr %9, align 4, !tbaa !3
  br label %51

51:                                               ; preds = %81, %48
  %52 = load i32, ptr %9, align 4, !tbaa !3
  %53 = load ptr, ptr %4, align 8, !tbaa !42
  %54 = getelementptr inbounds nuw %struct.Cnf_Man_t_, ptr %53, i32 0, i32 0
  %55 = load ptr, ptr %54, align 8, !tbaa !51
  %56 = getelementptr inbounds nuw %struct.Aig_Man_t_, ptr %55, i32 0, i32 3
  %57 = load ptr, ptr %56, align 8, !tbaa !74
  %58 = call i32 @Vec_PtrSize(ptr noundef %57)
  %59 = icmp slt i32 %52, %58
  br i1 %59, label %60, label %68

60:                                               ; preds = %51
  %61 = load ptr, ptr %4, align 8, !tbaa !42
  %62 = getelementptr inbounds nuw %struct.Cnf_Man_t_, ptr %61, i32 0, i32 0
  %63 = load ptr, ptr %62, align 8, !tbaa !51
  %64 = getelementptr inbounds nuw %struct.Aig_Man_t_, ptr %63, i32 0, i32 3
  %65 = load ptr, ptr %64, align 8, !tbaa !74
  %66 = load i32, ptr %9, align 4, !tbaa !3
  %67 = call ptr @Vec_PtrEntry(ptr noundef %65, i32 noundef %66)
  store ptr %67, ptr %8, align 8, !tbaa !44
  br label %68

68:                                               ; preds = %60, %51
  %69 = phi i1 [ false, %51 ], [ true, %60 ]
  br i1 %69, label %70, label %84

70:                                               ; preds = %68
  %71 = load ptr, ptr %4, align 8, !tbaa !42
  %72 = load ptr, ptr %8, align 8, !tbaa !44
  %73 = call ptr @Aig_ObjFanin0(ptr noundef %72)
  %74 = load ptr, ptr %7, align 8, !tbaa !46
  %75 = load i32, ptr %6, align 4, !tbaa !3
  %76 = call i32 @Cnf_ManScanMapping_rec(ptr noundef %71, ptr noundef %73, ptr noundef %74, i32 noundef %75)
  %77 = load ptr, ptr %4, align 8, !tbaa !42
  %78 = getelementptr inbounds nuw %struct.Cnf_Man_t_, ptr %77, i32 0, i32 3
  %79 = load i32, ptr %78, align 8, !tbaa !73
  %80 = add nsw i32 %79, %76
  store i32 %80, ptr %78, align 8, !tbaa !73
  br label %81

81:                                               ; preds = %70
  %82 = load i32, ptr %9, align 4, !tbaa !3
  %83 = add nsw i32 %82, 1
  store i32 %83, ptr %9, align 4, !tbaa !3
  br label %51, !llvm.loop !86

84:                                               ; preds = %68
  %85 = load ptr, ptr %7, align 8, !tbaa !46
  call void @llvm.lifetime.end.p0(i64 4, ptr %9) #12
  call void @llvm.lifetime.end.p0(i64 8, ptr %8) #12
  call void @llvm.lifetime.end.p0(i64 8, ptr %7) #12
  ret ptr %85
}