; Function Attrs: nounwind uwtable
define noundef ptr @Cnf_ManScanMapping(ptr noundef %0, i32 noundef %1, i32 noundef %2) local_unnamed_addr #0 {
  %4 = load ptr, ptr %0, align 8, !tbaa !47
  %5 = getelementptr inbounds nuw i8, ptr %4, i64 32
  %6 = load ptr, ptr %5, align 8, !tbaa !48
  %7 = getelementptr i8, ptr %6, i64 4
  %.val2327 = load i32, ptr %7, align 4, !tbaa !33
  %8 = icmp sgt i32 %.val2327, 0
  br i1 %8, label %.lr.ph, label %.critedge

.lr.ph:                                           ; preds = %3, %19
  %9 = phi ptr [ %20, %19 ], [ %4, %3 ]
  %indvars.iv = phi i64 [ %indvars.iv.next, %19 ], [ 0, %3 ]
  %10 = phi ptr [ %22, %19 ], [ %6, %3 ]
  %11 = getelementptr i8, ptr %10, i64 8
  %.val25 = load ptr, ptr %11, align 8, !tbaa !36
  %12 = getelementptr inbounds nuw ptr, ptr %.val25, i64 %indvars.iv
  %13 = load ptr, ptr %12, align 8, !tbaa !37
  %14 = icmp eq ptr %13, null
  br i1 %14, label %19, label %15

15:                                               ; preds = %.lr.ph
  %16 = getelementptr inbounds nuw i8, ptr %13, i64 24
  %17 = load i64, ptr %16, align 8
  %18 = and i64 %17, -4294967233
  store i64 %18, ptr %16, align 8
  %.pre = load ptr, ptr %0, align 8, !tbaa !47
  br label %19

19:                                               ; preds = %15, %.lr.ph
  %20 = phi ptr [ %.pre, %15 ], [ %9, %.lr.ph ]
  %indvars.iv.next = add nuw nsw i64 %indvars.iv, 1
  %21 = getelementptr inbounds nuw i8, ptr %20, i64 32
  %22 = load ptr, ptr %21, align 8, !tbaa !48
  %23 = getelementptr i8, ptr %22, i64 4
  %.val23 = load i32, ptr %23, align 4, !tbaa !33
  %24 = sext i32 %.val23 to i64
  %25 = icmp slt i64 %indvars.iv.next, %24
  br i1 %25, label %.lr.ph, label %.critedge, !llvm.loop !69

.critedge:                                        ; preds = %19, %3
  %26 = phi ptr [ %4, %3 ], [ %20, %19 ]
  %.not = icmp eq i32 %1, 0
  br i1 %.not, label %32, label %27

27:                                               ; preds = %.critedge
  %28 = tail call noalias dereferenceable_or_null(16) ptr @malloc(i64 noundef 16) #25
  %29 = getelementptr inbounds nuw i8, ptr %28, i64 4
  store i32 0, ptr %29, align 4, !tbaa !33
  store i32 1000, ptr %28, align 8, !tbaa !35
  %30 = tail call noalias dereferenceable_or_null(8000) ptr @malloc(i64 noundef 8000) #25
  %31 = getelementptr inbounds nuw i8, ptr %28, i64 8
  store ptr %30, ptr %31, align 8, !tbaa !36
  br label %32

32:                                               ; preds = %27, %.critedge
  %.021 = phi ptr [ %28, %27 ], [ null, %.critedge ]
  %33 = getelementptr inbounds nuw i8, ptr %0, i64 24
  store i32 0, ptr %33, align 8, !tbaa !59
  %34 = getelementptr inbounds nuw i8, ptr %26, i64 24
  %35 = load ptr, ptr %34, align 8, !tbaa !60
  %36 = getelementptr i8, ptr %35, i64 4
  %.val29 = load i32, ptr %36, align 4, !tbaa !33
  %37 = icmp sgt i32 %.val29, 0
  br i1 %37, label %.lr.ph31, label %.critedge2

.lr.ph31:                                         ; preds = %32, %.lr.ph31
  %indvars.iv33 = phi i64 [ %indvars.iv.next34, %.lr.ph31 ], [ 0, %32 ]
  %38 = phi ptr [ %51, %.lr.ph31 ], [ %35, %32 ]
  %39 = getelementptr i8, ptr %38, i64 8
  %.val24 = load ptr, ptr %39, align 8, !tbaa !36
  %40 = getelementptr inbounds nuw ptr, ptr %.val24, i64 %indvars.iv33
  %41 = load ptr, ptr %40, align 8, !tbaa !37
  %42 = getelementptr i8, ptr %41, i64 8
  %.val26 = load ptr, ptr %42, align 8, !tbaa !61
  %43 = ptrtoint ptr %.val26 to i64
  %44 = and i64 %43, -2
  %45 = inttoptr i64 %44 to ptr
  %46 = tail call i32 @Cnf_ManScanMapping_rec(ptr noundef nonnull %0, ptr noundef %45, ptr noundef %.021, i32 noundef %2)
  %47 = load i32, ptr %33, align 8, !tbaa !59
  %48 = add nsw i32 %47, %46
  store i32 %48, ptr %33, align 8, !tbaa !59
  %indvars.iv.next34 = add nuw nsw i64 %indvars.iv33, 1
  %49 = load ptr, ptr %0, align 8, !tbaa !47
  %50 = getelementptr inbounds nuw i8, ptr %49, i64 24
  %51 = load ptr, ptr %50, align 8, !tbaa !60
  %52 = getelementptr i8, ptr %51, i64 4
  %.val = load i32, ptr %52, align 4, !tbaa !33
  %53 = sext i32 %.val to i64
  %54 = icmp slt i64 %indvars.iv.next34, %53
  br i1 %54, label %.lr.ph31, label %.critedge2, !llvm.loop !70

.critedge2:                                       ; preds = %.lr.ph31, %32
  ret ptr %.021
}